target datalayout = "e-m:e-p270:32:32-p271:32:32-p272:64:64-i64:64-i128:128-f80:128-n8:16:32:64-S128"
target triple = "x86_64-pc-linux-gnu"

%"class.gmx::SelectionOptionStorage" = type { %"class.gmx::OptionStorageTemplate", %"class.gmx::SelectionOptionInfo", ptr, %"class.std::__cxx11::basic_string", %"class.gmx::FlagsTemplate.23" }
%"class.gmx::OptionStorageTemplate" = type { %"class.gmx::AbstractOptionStorage.base", %"class.std::vector.8", %"class.std::unique_ptr", %"class.std::unique_ptr.15" }
%"class.gmx::AbstractOptionStorage.base" = type <{ ptr, %"class.std::__cxx11::basic_string", %"class.std::__cxx11::basic_string", %"class.gmx::FlagsTemplate", ptr, i32, i32, i8, i8 }>
%"class.gmx::FlagsTemplate" = type { i64 }
%"class.std::vector.8" = type { %"struct.std::_Vector_base.9" }
%"struct.std::_Vector_base.9" = type { %"struct.std::_Vector_base<gmx::Selection, std::allocator<gmx::Selection>>::_Vector_impl" }
%"struct.std::_Vector_base<gmx::Selection, std::allocator<gmx::Selection>>::_Vector_impl" = type { %"struct.std::_Vector_base<gmx::Selection, std::allocator<gmx::Selection>>::_Vector_impl_data" }
%"struct.std::_Vector_base<gmx::Selection, std::allocator<gmx::Selection>>::_Vector_impl_data" = type { ptr, ptr, ptr }
%"class.std::unique_ptr" = type { %"struct.std::__uniq_ptr_data" }
%"struct.std::__uniq_ptr_data" = type { %"class.std::__uniq_ptr_impl" }
%"class.std::__uniq_ptr_impl" = type { %"class.std::tuple" }
%"class.std::tuple" = type { %"struct.std::_Tuple_impl" }
%"struct.std::_Tuple_impl" = type { %"struct.std::_Head_base.14" }
%"struct.std::_Head_base.14" = type { ptr }
%"class.std::unique_ptr.15" = type { %"struct.std::__uniq_ptr_data.16" }
%"struct.std::__uniq_ptr_data.16" = type { %"class.std::__uniq_ptr_impl.17" }
%"class.std::__uniq_ptr_impl.17" = type { %"class.std::tuple.18" }
%"class.std::tuple.18" = type { %"struct.std::_Tuple_impl.19" }
%"struct.std::_Tuple_impl.19" = type { %"struct.std::_Head_base.22" }
%"struct.std::_Head_base.22" = type { ptr }
%"class.gmx::SelectionOptionInfo" = type { %"class.gmx::OptionInfo" }
%"class.gmx::OptionInfo" = type { ptr, ptr }
%"class.std::__cxx11::basic_string" = type { %"struct.std::__cxx11::basic_string<char>::_Alloc_hider", i64, %union.anon }
%"struct.std::__cxx11::basic_string<char>::_Alloc_hider" = type { ptr }
%union.anon = type { i64, [8 x i8] }
%"class.gmx::FlagsTemplate.23" = type { i64 }
%"class.gmx::AbstractOptionStorage" = type <{ ptr, %"class.std::__cxx11::basic_string", %"class.std::__cxx11::basic_string", %"class.gmx::FlagsTemplate", ptr, i32, i32, i8, i8, [6 x i8] }>

; Function Attrs: mustprogress nounwind uwtable
define linkonce_odr noundef zeroext i1 @_ZNK3gmx13FlagsTemplateINS_10OptionFlagEE4testES1_(ptr noundef nonnull align 8 dereferenceable(8) %0, i64 noundef %1) #2 comdat align 2 {
  %3 = alloca ptr, align 8
  %4 = alloca i64, align 8
  store ptr %0, ptr %3, align 8, !tbaa !82
  store i64 %1, ptr %4, align 8, !tbaa !85
  %5 = load ptr, ptr %3, align 8
  %6 = getelementptr inbounds nuw %"class.gmx::FlagsTemplate", ptr %5, i32 0, i32 0
  %7 = load i64, ptr %6, align 8, !tbaa !84
  %8 = load i64, ptr %4, align 8, !tbaa !85
  %9 = and i64 %7, %8
  %10 = icmp ne i64 %9, 0
  ret i1 %10
}

; Function Attrs: mustprogress nounwind uwtable
define available_externally noundef i64 @_ZNKSt7__cxx1112basic_stringIcSt11char_traitsIcESaIcEE4sizeEv(ptr noundef nonnull align 8 dereferenceable(32) %0) #2 align 2 {
  %2 = alloca ptr, align 8
  store ptr %0, ptr %2, align 8, !tbaa !98
  %3 = load ptr, ptr %2, align 8
  %4 = getelementptr inbounds nuw %"class.std::__cxx11::basic_string", ptr %3, i32 0, i32 1
  %5 = load i64, ptr %4, align 8, !tbaa !295
  ret i64 %5
}

; Function Attrs: mustprogress nounwind uwtable
define linkonce_odr noundef zeroext i1 @_ZNK3gmx21AbstractOptionStorage7hasFlagENS_10OptionFlagE(ptr noundef nonnull align 8 dereferenceable(98) %0, i64 noundef %1) #2 comdat align 2 {
  %3 = alloca ptr, align 8
  %4 = alloca i64, align 8
  store ptr %0, ptr %3, align 8, !tbaa !15
  store i64 %1, ptr %4, align 8, !tbaa !85
  %5 = load ptr, ptr %3, align 8
  %6 = getelementptr inbounds nuw %"class.gmx::AbstractOptionStorage", ptr %5, i32 0, i32 3
  %7 = load i64, ptr %4, align 8, !tbaa !85
  %8 = call noundef zeroext i1 @_ZNK3gmx13FlagsTemplateINS_10OptionFlagEE4testES1_(ptr noundef nonnull align 8 dereferenceable(8) %6, i64 noundef %7)
  ret i1 %8
}

; Function Attrs: mustprogress nounwind uwtable
define linkonce_odr noundef zeroext i1 @_ZNK3gmx21AbstractOptionStorage10isRequiredEv(ptr noundef nonnull align 8 dereferenceable(98) %0) #2 comdat align 2 {
  %2 = alloca ptr, align 8
  store ptr %0, ptr %2, align 8, !tbaa !15
  %3 = load ptr, ptr %2, align 8
  %4 = call noundef zeroext i1 @_ZNK3gmx21AbstractOptionStorage7hasFlagENS_10OptionFlagE(ptr noundef nonnull align 8 dereferenceable(98) %3, i64 noundef 16)
  ret i1 %4
}

; Function Attrs: mustprogress nounwind uwtable
define available_externally noundef zeroext i1 @_ZNKSt7__cxx1112basic_stringIcSt11char_traitsIcESaIcEE5emptyEv(ptr noundef nonnull align 8 dereferenceable(32) %0) #2 align 2 {
  %2 = alloca ptr, align 8
  store ptr %0, ptr %2, align 8, !tbaa !98
  %3 = load ptr, ptr %2, align 8
  %4 = call noundef i64 @_ZNKSt7__cxx1112basic_stringIcSt11char_traitsIcESaIcEE4sizeEv(ptr noundef nonnull align 8 dereferenceable(32) %3) #20
  %5 = icmp eq i64 %4, 0
  ret i1 %5
}

; Function Attrs: mustprogress nounwind uwtable
define linkonce_odr noundef zeroext i1 @_ZNK3gmx21AbstractOptionStorage5isSetEv(ptr noundef nonnull align 8 dereferenceable(98) %0) #2 comdat align 2 {
  %2 = alloca ptr, align 8
  store ptr %0, ptr %2, align 8, !tbaa !15
  %3 = load ptr, ptr %2, align 8
  %4 = call noundef zeroext i1 @_ZNK3gmx21AbstractOptionStorage7hasFlagENS_10OptionFlagE(ptr noundef nonnull align 8 dereferenceable(98) %3, i64 noundef 1)
  ret i1 %4
}

; Function Attrs: mustprogress uwtable
define void @_ZN3gmx22SelectionOptionStorage10processAllEv(ptr noundef nonnull align 8 dereferenceable(208) %0) unnamed_addr #1 align 2 {
  %2 = alloca ptr, align 8
  store ptr %0, ptr %2, align 8, !tbaa !11
  %3 = load ptr, ptr %2, align 8
  %4 = call noundef zeroext i1 @_ZNK3gmx21AbstractOptionStorage5isSetEv(ptr noundef nonnull align 8 dereferenceable(98) %3)
  br i1 %4, label %12, label %5

5:                                                ; preds = %1
  %6 = getelementptr inbounds nuw %"class.gmx::SelectionOptionStorage", ptr %3, i32 0, i32 3
  %7 = call noundef zeroext i1 @_ZNKSt7__cxx1112basic_stringIcSt11char_traitsIcESaIcEE5emptyEv(ptr noundef nonnull align 8 dereferenceable(32) %6) #20
  br i1 %7, label %12, label %8

8:                                                ; preds = %5
  %9 = getelementptr inbounds nuw %"class.gmx::SelectionOptionStorage", ptr %3, i32 0, i32 2
  %10 = load ptr, ptr %9, align 8, !tbaa !27
  %11 = getelementptr inbounds nuw %"class.gmx::SelectionOptionStorage", ptr %3, i32 0, i32 3
  call void @_ZN3gmx22SelectionOptionManager18convertOptionValueEPNS_22SelectionOptionStorageERKNSt7__cxx1112basic_stringIcSt11char_traitsIcESaIcEEEb(ptr noundef nonnull align 8 dereferenceable(16) %10, ptr noundef %3, ptr noundef nonnull align 8 dereferenceable(32) %11, i1 noundef zeroext true)
  br label %12

12:                                               ; preds = %8, %5, %1
  %13 = call noundef zeroext i1 @_ZNK3gmx21AbstractOptionStorage10isRequiredEv(ptr noundef nonnull align 8 dereferenceable(98) %3)
  br i1 %13, label %14, label %19

14:                                               ; preds = %12
  %15 = call noundef zeroext i1 @_ZNK3gmx21AbstractOptionStorage5isSetEv(ptr noundef nonnull align 8 dereferenceable(98) %3)
  br i1 %15, label %19, label %16

16:                                               ; preds = %14
  %17 = getelementptr inbounds nuw %"class.gmx::SelectionOptionStorage", ptr %3, i32 0, i32 2
  %18 = load ptr, ptr %17, align 8, !tbaa !27
  call void @_ZN3gmx22SelectionOptionManager27requestOptionDelayedParsingEPNS_22SelectionOptionStorageE(ptr noundef nonnull align 8 dereferenceable(16) %18, ptr noundef %3)
  call void @_ZN3gmx21AbstractOptionStorage9markAsSetEv(ptr noundef nonnull align 8 dereferenceable(98) %3)
  br label %19

19:                                               ; preds = %16, %14, %12
  ret void
}