; Function Attrs: mustprogress uwtable
define void @_ZN3gmx22SelectionOptionStorage10processAllEv(ptr noundef nonnull align 8 dereferenceable(208) %0) unnamed_addr #1 align 2 {
  %2 = getelementptr inbounds nuw i8, ptr %0, i64 72
  %3 = load i64, ptr %2, align 8, !tbaa !29
  %4 = and i64 %3, 1
  %.not = icmp ne i64 %4, 0
  %5 = getelementptr inbounds nuw i8, ptr %0, i64 176
  %6 = load i64, ptr %5, align 8
  %7 = icmp eq i64 %6, 0
  %or.cond = select i1 %.not, i1 true, i1 %7
  br i1 %or.cond, label %12, label %8

8:                                                ; preds = %1
  %9 = getelementptr inbounds nuw i8, ptr %0, i64 168
  %10 = getelementptr inbounds nuw i8, ptr %0, i64 160
  %11 = load ptr, ptr %10, align 8, !tbaa !85
  tail call void @_ZN3gmx22SelectionOptionManager18convertOptionValueEPNS_22SelectionOptionStorageERKNSt7__cxx1112basic_stringIcSt11char_traitsIcESaIcEEEb(ptr noundef nonnull align 8 dereferenceable(16) %11, ptr noundef nonnull %0, ptr noundef nonnull align 8 dereferenceable(32) %9, i1 noundef zeroext true)
  %.pre = load i64, ptr %2, align 8, !tbaa !29
  br label %12

12:                                               ; preds = %8, %1
  %13 = phi i64 [ %.pre, %8 ], [ %3, %1 ]
  %14 = and i64 %13, 17
  %or.cond.not = icmp eq i64 %14, 16
  br i1 %or.cond.not, label %15, label %18

15:                                               ; preds = %12
  %16 = getelementptr inbounds nuw i8, ptr %0, i64 160
  %17 = load ptr, ptr %16, align 8, !tbaa !85
  tail call void @_ZN3gmx22SelectionOptionManager27requestOptionDelayedParsingEPNS_22SelectionOptionStorageE(ptr noundef nonnull align 8 dereferenceable(16) %17, ptr noundef nonnull %0)
  tail call void @_ZN3gmx21AbstractOptionStorage9markAsSetEv(ptr noundef nonnull align 8 dereferenceable(98) %0)
  br label %18

18:                                               ; preds = %15, %12
  ret void
}